target datalayout = "e-m:e-p270:32:32-p271:32:32-p272:64:64-i64:64-i128:128-f80:128-n8:16:32:64-S128"
target triple = "x86_64-pc-linux-gnu"

%"class.cv::Point3_" = type { float, float, float }

; Function Attrs: inlinehint mustprogress nounwind uwtable
define internal void @_ZN2cv4rgbdL22calcRgbdEquationCoeffsEPdddRKNS_7Point3_IfEEdd(ptr noundef %0, double noundef %1, double noundef %2, ptr noundef nonnull align 4 dereferenceable(12) %3, double noundef %4, double noundef %5) #11 {
  %7 = alloca ptr, align 8
  %8 = alloca double, align 8
  %9 = alloca double, align 8
  %10 = alloca ptr, align 8
  %11 = alloca double, align 8
  %12 = alloca double, align 8
  %13 = alloca double, align 8
  %14 = alloca double, align 8
  %15 = alloca double, align 8
  %16 = alloca double, align 8
  store ptr %0, ptr %7, align 8, !tbaa !289
  store double %1, ptr %8, align 8, !tbaa !117
  store double %2, ptr %9, align 8, !tbaa !117
  store ptr %3, ptr %10, align 8, !tbaa !161
  store double %4, ptr %11, align 8, !tbaa !117
  store double %5, ptr %12, align 8, !tbaa !117
  call void @llvm.lifetime.start.p0(i64 8, ptr %13) #3
  %17 = load ptr, ptr %10, align 8, !tbaa !161
  %18 = getelementptr inbounds nuw %"class.cv::Point3_", ptr %17, i32 0, i32 2
  %19 = load float, ptr %18, align 4, !tbaa !211
  %20 = fpext float %19 to double
  %21 = fdiv double 1.000000e+00, %20
  store double %21, ptr %13, align 8, !tbaa !117
  call void @llvm.lifetime.start.p0(i64 8, ptr %14) #3
  %22 = load double, ptr %8, align 8, !tbaa !117
  %23 = load double, ptr %11, align 8, !tbaa !117
  %24 = fmul double %22, %23
  %25 = load double, ptr %13, align 8, !tbaa !117
  %26 = fmul double %24, %25
  store double %26, ptr %14, align 8, !tbaa !117
  call void @llvm.lifetime.start.p0(i64 8, ptr %15) #3
  %27 = load double, ptr %9, align 8, !tbaa !117
  %28 = load double, ptr %12, align 8, !tbaa !117
  %29 = fmul double %27, %28
  %30 = load double, ptr %13, align 8, !tbaa !117
  %31 = fmul double %29, %30
  store double %31, ptr %15, align 8, !tbaa !117
  call void @llvm.lifetime.start.p0(i64 8, ptr %16) #3
  %32 = load double, ptr %14, align 8, !tbaa !117
  %33 = load ptr, ptr %10, align 8, !tbaa !161
  %34 = getelementptr inbounds nuw %"class.cv::Point3_", ptr %33, i32 0, i32 0
  %35 = load float, ptr %34, align 4, !tbaa !291
  %36 = fpext float %35 to double
  %37 = load double, ptr %15, align 8, !tbaa !117
  %38 = load ptr, ptr %10, align 8, !tbaa !161
  %39 = getelementptr inbounds nuw %"class.cv::Point3_", ptr %38, i32 0, i32 1
  %40 = load float, ptr %39, align 4, !tbaa !292
  %41 = fpext float %40 to double
  %42 = fmul double %37, %41
  %43 = call double @llvm.fmuladd.f64(double %32, double %36, double %42)
  %44 = fneg double %43
  %45 = load double, ptr %13, align 8, !tbaa !117
  %46 = fmul double %44, %45
  store double %46, ptr %16, align 8, !tbaa !117
  %47 = load ptr, ptr %10, align 8, !tbaa !161
  %48 = getelementptr inbounds nuw %"class.cv::Point3_", ptr %47, i32 0, i32 2
  %49 = load float, ptr %48, align 4, !tbaa !211
  %50 = fneg float %49
  %51 = fpext float %50 to double
  %52 = load double, ptr %15, align 8, !tbaa !117
  %53 = load ptr, ptr %10, align 8, !tbaa !161
  %54 = getelementptr inbounds nuw %"class.cv::Point3_", ptr %53, i32 0, i32 1
  %55 = load float, ptr %54, align 4, !tbaa !292
  %56 = fpext float %55 to double
  %57 = load double, ptr %16, align 8, !tbaa !117
  %58 = fmul double %56, %57
  %59 = call double @llvm.fmuladd.f64(double %51, double %52, double %58)
  %60 = load ptr, ptr %7, align 8, !tbaa !289
  %61 = getelementptr inbounds double, ptr %60, i64 0
  store double %59, ptr %61, align 8, !tbaa !117
  %62 = load ptr, ptr %10, align 8, !tbaa !161
  %63 = getelementptr inbounds nuw %"class.cv::Point3_", ptr %62, i32 0, i32 2
  %64 = load float, ptr %63, align 4, !tbaa !211
  %65 = fpext float %64 to double
  %66 = load double, ptr %14, align 8, !tbaa !117
  %67 = load ptr, ptr %10, align 8, !tbaa !161
  %68 = getelementptr inbounds nuw %"class.cv::Point3_", ptr %67, i32 0, i32 0
  %69 = load float, ptr %68, align 4, !tbaa !291
  %70 = fpext float %69 to double
  %71 = load double, ptr %16, align 8, !tbaa !117
  %72 = fmul double %70, %71
  %73 = fneg double %72
  %74 = call double @llvm.fmuladd.f64(double %65, double %66, double %73)
  %75 = load ptr, ptr %7, align 8, !tbaa !289
  %76 = getelementptr inbounds double, ptr %75, i64 1
  store double %74, ptr %76, align 8, !tbaa !117
  %77 = load ptr, ptr %10, align 8, !tbaa !161
  %78 = getelementptr inbounds nuw %"class.cv::Point3_", ptr %77, i32 0, i32 1
  %79 = load float, ptr %78, align 4, !tbaa !292
  %80 = fneg float %79
  %81 = fpext float %80 to double
  %82 = load double, ptr %14, align 8, !tbaa !117
  %83 = load ptr, ptr %10, align 8, !tbaa !161
  %84 = getelementptr inbounds nuw %"class.cv::Point3_", ptr %83, i32 0, i32 0
  %85 = load float, ptr %84, align 4, !tbaa !291
  %86 = fpext float %85 to double
  %87 = load double, ptr %15, align 8, !tbaa !117
  %88 = fmul double %86, %87
  %89 = call double @llvm.fmuladd.f64(double %81, double %82, double %88)
  %90 = load ptr, ptr %7, align 8, !tbaa !289
  %91 = getelementptr inbounds double, ptr %90, i64 2
  store double %89, ptr %91, align 8, !tbaa !117
  %92 = load double, ptr %14, align 8, !tbaa !117
  %93 = load ptr, ptr %7, align 8, !tbaa !289
  %94 = getelementptr inbounds double, ptr %93, i64 3
  store double %92, ptr %94, align 8, !tbaa !117
  %95 = load double, ptr %15, align 8, !tbaa !117
  %96 = load ptr, ptr %7, align 8, !tbaa !289
  %97 = getelementptr inbounds double, ptr %96, i64 4
  store double %95, ptr %97, align 8, !tbaa !117
  %98 = load double, ptr %16, align 8, !tbaa !117
  %99 = load ptr, ptr %7, align 8, !tbaa !289
  %100 = getelementptr inbounds double, ptr %99, i64 5
  store double %98, ptr %100, align 8, !tbaa !117
  call void @llvm.lifetime.end.p0(i64 8, ptr %16) #3
  call void @llvm.lifetime.end.p0(i64 8, ptr %15) #3
  call void @llvm.lifetime.end.p0(i64 8, ptr %14) #3
  call void @llvm.lifetime.end.p0(i64 8, ptr %13) #3
  ret void
}